; Function Attrs: mustprogress nounwind uwtable
define hidden noundef ptr @_ZN10JvmtiTrace14get_class_nameEP7oopDesc(ptr noundef nonnull %0) local_unnamed_addr #0 align 2 {
  %2 = load i32, ptr @_ZN15java_lang_Class13_klass_offsetE, align 4
  %3 = tail call noundef ptr @_ZNK7oopDesc14metadata_fieldEi(ptr noundef nonnull align 8 dereferenceable(16) %0, i32 noundef %2) #9
  %4 = icmp eq ptr %3, null
  br i1 %4, label %11, label %5

5:                                                ; preds = %1
  %6 = load i32, ptr @_ZN15java_lang_Class13_klass_offsetE, align 4
  %7 = tail call noundef ptr @_ZNK7oopDesc14metadata_fieldEi(ptr noundef nonnull align 8 dereferenceable(16) %0, i32 noundef %6) #9
  %8 = icmp eq ptr %7, null
  br i1 %8, label %11, label %9

9:                                                ; preds = %5
  %10 = tail call noundef ptr @_ZNK5Klass13external_nameEv(ptr noundef nonnull align 8 dereferenceable(196) %7) #9
  br label %11

11:                                               ; preds = %5, %1, %9
  %.0 = phi ptr [ %10, %9 ], [ @.str.25, %1 ], [ @.str.26, %5 ]
  ret ptr %.0
}